; Function Attrs: mustprogress uwtable
define hidden noundef i32 @_ZN3mus8add_softEP4expr(ptr noundef nonnull readonly align 8 captures(none) dereferenceable(8) %0, ptr noundef %1) local_unnamed_addr #3 align 2 {
  %3 = alloca %"struct.obj_map<expr, unsigned int>::key_data", align 8
  %4 = load ptr, ptr %0, align 8, !tbaa !36
  %5 = getelementptr inbounds nuw i8, ptr %4, i64 24
  %6 = load ptr, ptr %5, align 8, !tbaa !12
  %7 = icmp eq ptr %6, null
  br i1 %7, label %_ZNK15ref_vector_coreI4expr19ref_manager_wrapperIS0_11ast_managerEE4sizeEv.exit.i, label %8

8:                                                ; preds = %2
  %9 = getelementptr inbounds i8, ptr %6, i64 -4
  %10 = load i32, ptr %9, align 4, !tbaa !39
  br label %_ZNK15ref_vector_coreI4expr19ref_manager_wrapperIS0_11ast_managerEE4sizeEv.exit.i

_ZNK15ref_vector_coreI4expr19ref_manager_wrapperIS0_11ast_managerEE4sizeEv.exit.i: ; preds = %8, %2
  %.0.i.i.i = phi i32 [ %10, %8 ], [ 0, %2 ]
  %11 = getelementptr inbounds nuw i8, ptr %4, i64 48
  call void @llvm.lifetime.start.p0(i64 16, ptr nonnull %3) #18
  store ptr %1, ptr %3, align 8, !tbaa !16
  %12 = getelementptr inbounds nuw i8, ptr %3, i64 8
  store i32 %.0.i.i.i, ptr %12, align 8, !tbaa !20
  call void @_ZN14core_hashtableIN7obj_mapI4exprjE13obj_map_entryE8obj_hashINS2_8key_dataEE10default_eqIS5_EE6insertEOS5_(ptr noundef nonnull align 8 dereferenceable(24) %11, ptr noundef nonnull align 8 dereferenceable(12) %3)
  call void @llvm.lifetime.end.p0(i64 16, ptr nonnull %3) #18
  %.not.i.i.i.i.i = icmp eq ptr %1, null
  br i1 %.not.i.i.i.i.i, label %_ZN15ref_vector_coreI4expr19ref_manager_wrapperIS0_11ast_managerEE7inc_refEPS0_.exit.i.i, label %13

13:                                               ; preds = %_ZNK15ref_vector_coreI4expr19ref_manager_wrapperIS0_11ast_managerEE4sizeEv.exit.i
  %14 = getelementptr inbounds nuw i8, ptr %1, i64 8
  %15 = load i32, ptr %14, align 4, !tbaa !40
  %16 = add i32 %15, 1
  store i32 %16, ptr %14, align 4, !tbaa !40
  br label %_ZN15ref_vector_coreI4expr19ref_manager_wrapperIS0_11ast_managerEE7inc_refEPS0_.exit.i.i

_ZN15ref_vector_coreI4expr19ref_manager_wrapperIS0_11ast_managerEE7inc_refEPS0_.exit.i.i: ; preds = %13, %_ZNK15ref_vector_coreI4expr19ref_manager_wrapperIS0_11ast_managerEE4sizeEv.exit.i
  %17 = load ptr, ptr %5, align 8, !tbaa !12
  %18 = icmp eq ptr %17, null
  br i1 %18, label %25, label %19

19:                                               ; preds = %_ZN15ref_vector_coreI4expr19ref_manager_wrapperIS0_11ast_managerEE7inc_refEPS0_.exit.i.i
  %20 = getelementptr inbounds i8, ptr %17, i64 -4
  %21 = load i32, ptr %20, align 4, !tbaa !39
  %22 = getelementptr inbounds i8, ptr %17, i64 -8
  %23 = load i32, ptr %22, align 4, !tbaa !39
  %24 = icmp eq i32 %21, %23
  br i1 %24, label %25, label %_ZN3mus3imp8add_softEP4expr.exit

25:                                               ; preds = %19, %_ZN15ref_vector_coreI4expr19ref_manager_wrapperIS0_11ast_managerEE7inc_refEPS0_.exit.i.i
  call void @_ZN6vectorIP4exprLb0EjE13expand_vectorEv(ptr noundef nonnull align 8 dereferenceable(8) %5)
  %.pre.i.i.i = load ptr, ptr %5, align 8, !tbaa !12
  %.phi.trans.insert.i.i.i = getelementptr inbounds i8, ptr %.pre.i.i.i, i64 -4
  %.pre2.i.i.i = load i32, ptr %.phi.trans.insert.i.i.i, align 4, !tbaa !39
  br label %_ZN3mus3imp8add_softEP4expr.exit

_ZN3mus3imp8add_softEP4expr.exit:                 ; preds = %19, %25
  %26 = phi i32 [ %.pre2.i.i.i, %25 ], [ %21, %19 ]
  %27 = phi ptr [ %.pre.i.i.i, %25 ], [ %17, %19 ]
  %28 = getelementptr inbounds i8, ptr %27, i64 -4
  %29 = zext i32 %26 to i64
  %30 = getelementptr inbounds nuw ptr, ptr %27, i64 %29
  store ptr %1, ptr %30, align 8, !tbaa !42
  %31 = add i32 %26, 1
  store i32 %31, ptr %28, align 4, !tbaa !39
  ret i32 %.0.i.i.i
}